(dp0
S'CorpID'
p1
S'wxb43cf56135719896'
p2
sS'Secret'
p3
S'0dvetk6Kivhbh27TKe_c0evcoZw-tZR7kSAhDojs7QQ9VyTO1NsTMb-8PaQa1X1I'
p4
sS'AT_time'
p5
F1453742831.028795
sS'AccessToken'
p6
Vl5CBsUZnxKqJFRb2Un5PYHrf3CwmBx36m22psUTQQBKy72LUINvLOq_g4ixSn-lM_L7Zp03hosqRGW5J780OuA
p7
sS'AT_expires_in'
p8
I7200
s.